target datalayout = "e-m:e-p270:32:32-p271:32:32-p272:64:64-i64:64-i128:128-f80:128-n8:16:32:64-S128"
target triple = "x86_64-pc-linux-gnu"

%"class.std::error_code" = type { i32, ptr }
%"class.boost::iostreams::bzip2_error" = type <{ %"class.std::ios_base::failure", i32, [4 x i8] }>
%"class.std::ios_base::failure" = type { %"class.std::system_error" }
%"class.std::system_error" = type { %"class.std::runtime_error", %"class.std::error_code" }
%"class.std::runtime_error" = type { %"class.std::exception", %"struct.std::__cow_string" }
%"class.std::exception" = type { ptr }
%"struct.std::__cow_string" = type { %union.anon }
%union.anon = type { ptr }
%"class.std::bad_alloc" = type { %"class.std::exception" }

@_ZTVSt9bad_alloc = available_externally unnamed_addr constant { [5 x ptr] } { [5 x ptr] [ptr null, ptr @_ZTISt9bad_alloc, ptr @_ZNSt9bad_allocD1Ev, ptr @_ZNSt9bad_allocD0Ev, ptr @_ZNKSt9bad_alloc4whatEv] }, align 8
@_ZTVSt9exception = available_externally unnamed_addr constant { [5 x ptr] } { [5 x ptr] [ptr null, ptr @_ZTISt9exception, ptr @_ZNSt9exceptionD1Ev, ptr @_ZNSt9exceptionD0Ev, ptr @_ZNKSt9exception4whatEv] }, align 8
@_ZN5boost9iostreams11bzip2_errorC1Ei = unnamed_addr alias void (ptr, i32), ptr @_ZN5boost9iostreams11bzip2_errorC2Ei

; Function Attrs: mustprogress nounwind uwtable
define linkonce_odr hidden void @_ZNSt9exceptionC2Ev(ptr noundef nonnull align 8 dereferenceable(8) %0) unnamed_addr #2 comdat align 2 {
  %2 = alloca ptr, align 8
  store ptr %0, ptr %2, align 8, !tbaa !3
  %3 = load ptr, ptr %2, align 8
  store ptr getelementptr inbounds inrange(-16, 24) ({ [5 x ptr] }, ptr @_ZTVSt9exception, i32 0, i32 0, i32 2), ptr %3, align 8, !tbaa !9
  ret void
}

; Function Attrs: mustprogress nounwind uwtable
define linkonce_odr hidden void @_ZNSt9bad_allocC2Ev(ptr noundef nonnull align 8 dereferenceable(8) %0) unnamed_addr #2 comdat align 2 {
  %2 = alloca ptr, align 8
  store ptr %0, ptr %2, align 8, !tbaa !3
  %3 = load ptr, ptr %2, align 8
  call void @_ZNSt9exceptionC2Ev(ptr noundef nonnull align 8 dereferenceable(8) %3) #15
  store ptr getelementptr inbounds inrange(-16, 24) ({ [5 x ptr] }, ptr @_ZTVSt9bad_alloc, i32 0, i32 0, i32 2), ptr %3, align 8, !tbaa !9
  ret void
}

; Function Attrs: mustprogress uwtable
define void @_ZN5boost9iostreams11bzip2_error5checkEi(i32 noundef %0) #0 align 2 personality ptr @__gxx_personality_v0 {
  %2 = alloca i32, align 4
  %3 = alloca %"class.std::bad_alloc", align 8
  %4 = alloca ptr, align 8
  %5 = alloca i32, align 4
  %6 = alloca %"class.boost::iostreams::bzip2_error", align 8
  store i32 %0, ptr %2, align 4, !tbaa !7
  %7 = load i32, ptr %2, align 4, !tbaa !7
  switch i32 %7, label %15 [
    i32 0, label %8
    i32 1, label %8
    i32 2, label %8
    i32 3, label %8
    i32 4, label %8
    i32 -3, label %9
  ]

8:                                                ; preds = %1, %1, %1, %1, %1
  ret void

9:                                                ; preds = %1
  call void @llvm.lifetime.start.p0(i64 8, ptr %3) #15
  call void @_ZNSt9bad_allocC2Ev(ptr noundef nonnull align 8 dereferenceable(8) %3) #15
  invoke void @_ZN5boost15throw_exceptionISt9bad_allocEEvRKT_(ptr noundef nonnull align 8 dereferenceable(8) %3) #16
          to label %10 unwind label %11

10:                                               ; preds = %9
  unreachable

11:                                               ; preds = %9
  %12 = landingpad { ptr, i32 }
          cleanup
  %13 = extractvalue { ptr, i32 } %12, 0
  store ptr %13, ptr %4, align 8
  %14 = extractvalue { ptr, i32 } %12, 1
  store i32 %14, ptr %5, align 4
  call void @_ZNSt9bad_allocD1Ev(ptr noundef nonnull align 8 dereferenceable(8) %3) #15
  call void @llvm.lifetime.end.p0(i64 8, ptr %3) #15
  br label %22

15:                                               ; preds = %1
  call void @llvm.lifetime.start.p0(i64 40, ptr %6) #15
  %16 = load i32, ptr %2, align 4, !tbaa !7
  call void @_ZN5boost9iostreams11bzip2_errorC1Ei(ptr noundef nonnull align 8 dereferenceable(36) %6, i32 noundef %16)
  invoke void @_ZN5boost15throw_exceptionINS_9iostreams11bzip2_errorEEEvRKT_(ptr noundef nonnull align 8 dereferenceable(36) %6) #16
          to label %17 unwind label %18

17:                                               ; preds = %15
  unreachable

18:                                               ; preds = %15
  %19 = landingpad { ptr, i32 }
          cleanup
  %20 = extractvalue { ptr, i32 } %19, 0
  store ptr %20, ptr %4, align 8
  %21 = extractvalue { ptr, i32 } %19, 1
  store i32 %21, ptr %5, align 4
  call void @_ZNSt8ios_base7failureB5cxx11D2Ev(ptr noundef nonnull align 8 dereferenceable(36) %6) #15
  call void @llvm.lifetime.end.p0(i64 40, ptr %6) #15
  br label %22

22:                                               ; preds = %18, %11
  %23 = load ptr, ptr %4, align 8
  %24 = load i32, ptr %5, align 4
  %25 = insertvalue { ptr, i32 } poison, ptr %23, 0
  %26 = insertvalue { ptr, i32 } %25, i32 %24, 1
  resume { ptr, i32 } %26
}