; Function Attrs: mustprogress uwtable
define void @_ZN5boost9iostreams11bzip2_error5checkEi(i32 noundef %0) local_unnamed_addr #0 align 2 personality ptr @__gxx_personality_v0 {
  %2 = alloca %"class.std::bad_alloc", align 8
  %3 = alloca %"class.boost::iostreams::bzip2_error", align 8
  switch i32 %0, label %9 [
    i32 0, label %4
    i32 1, label %4
    i32 2, label %4
    i32 3, label %4
    i32 4, label %4
    i32 -3, label %5
  ]

4:                                                ; preds = %1, %1, %1, %1, %1
  ret void

5:                                                ; preds = %1
  call void @llvm.lifetime.start.p0(i64 8, ptr nonnull %2) #21
  store ptr getelementptr inbounds inrange(-16, 24) (i8, ptr @_ZTVSt9bad_alloc, i64 16), ptr %2, align 8, !tbaa !9
  invoke void @_ZN5boost15throw_exceptionISt9bad_allocEEvRKT_(ptr noundef nonnull align 8 dereferenceable(8) %2) #23
          to label %6 unwind label %7

6:                                                ; preds = %5
  unreachable

7:                                                ; preds = %5
  %8 = landingpad { ptr, i32 }
          cleanup
  call void @_ZNSt9bad_allocD1Ev(ptr noundef nonnull align 8 dereferenceable(8) %2) #21
  call void @llvm.lifetime.end.p0(i64 8, ptr nonnull %2) #21
  br label %13

9:                                                ; preds = %1
  call void @llvm.lifetime.start.p0(i64 40, ptr nonnull %3) #21
  call void @_ZN5boost9iostreams11bzip2_errorC1Ei(ptr noundef nonnull align 8 dereferenceable(36) %3, i32 noundef %0)
  invoke void @_ZN5boost15throw_exceptionINS_9iostreams11bzip2_errorEEEvRKT_(ptr noundef nonnull align 8 dereferenceable(36) %3) #23
          to label %10 unwind label %11

10:                                               ; preds = %9
  unreachable

11:                                               ; preds = %9
  %12 = landingpad { ptr, i32 }
          cleanup
  call void @_ZNSt8ios_base7failureB5cxx11D2Ev(ptr noundef nonnull align 8 dereferenceable(36) %3) #21
  call void @llvm.lifetime.end.p0(i64 40, ptr nonnull %3) #21
  br label %13

13:                                               ; preds = %11, %7
  %.pn = phi { ptr, i32 } [ %12, %11 ], [ %8, %7 ]
  resume { ptr, i32 } %.pn
}